target datalayout = "e-m:e-p270:32:32-p271:32:32-p272:64:64-i64:64-i128:128-f80:128-n8:16:32:64-S128"
target triple = "x86_64-unknown-linux-gnu"

; Function Attrs: mustprogress uwtable
define noundef i32 @_ZNK6icu_7514TaiwanCalendar14handleGetLimitE19UCalendarDateFieldsNS_8Calendar10ELimitTypeE(ptr noundef nonnull align 8 dereferenceable(654) %this, i32 noundef %field, i32 noundef %limitType) unnamed_addr #1 align 2 {
entry:
  %retval = alloca i32, align 4
  %this.addr = alloca ptr, align 8
  %field.addr = alloca i32, align 4
  %limitType.addr = alloca i32, align 4
  store ptr %this, ptr %this.addr, align 8
  store i32 %field, ptr %field.addr, align 4
  store i32 %limitType, ptr %limitType.addr, align 4
  %this1 = load ptr, ptr %this.addr, align 8
  %0 = load i32, ptr %field.addr, align 4
  %cmp = icmp eq i32 %0, 0
  br i1 %cmp, label %if.then, label %if.else5

if.then:                                          ; preds = %entry
  %1 = load i32, ptr %limitType.addr, align 4
  %cmp2 = icmp eq i32 %1, 0
  br i1 %cmp2, label %if.then4, label %lor.lhs.false

lor.lhs.false:                                    ; preds = %if.then
  %2 = load i32, ptr %limitType.addr, align 4
  %cmp3 = icmp eq i32 %2, 1
  br i1 %cmp3, label %if.then4, label %if.else

if.then4:                                         ; preds = %lor.lhs.false, %if.then
  store i32 0, ptr %retval, align 4
  br label %return

if.else:                                          ; preds = %lor.lhs.false
  store i32 1, ptr %retval, align 4
  br label %return

if.else5:                                         ; preds = %entry
  %3 = load i32, ptr %field.addr, align 4
  %4 = load i32, ptr %limitType.addr, align 4
  %call = call noundef i32 @_ZNK6icu_7517GregorianCalendar14handleGetLimitE19UCalendarDateFieldsNS_8Calendar10ELimitTypeE(ptr noundef nonnull align 8 dereferenceable(654) %this1, i32 noundef %3, i32 noundef %4)
  store i32 %call, ptr %retval, align 4
  br label %return

return:                                           ; preds = %if.else5, %if.else, %if.then4
  %5 = load i32, ptr %retval, align 4
  ret i32 %5
}