; Function Attrs: mustprogress uwtable
define noundef i32 @_ZNK6icu_7514TaiwanCalendar14handleGetLimitE19UCalendarDateFieldsNS_8Calendar10ELimitTypeE(ptr noundef nonnull align 8 dereferenceable(654) %this, i32 noundef %field, i32 noundef %limitType) unnamed_addr #1 align 2 {
entry:
  %cmp = icmp eq i32 %field, 0
  br i1 %cmp, label %if.then, label %if.else5

if.then:                                          ; preds = %entry
  %or.cond = icmp ugt i32 %limitType, 1
  %. = zext i1 %or.cond to i32
  br label %return

if.else5:                                         ; preds = %entry
  %call = tail call noundef i32 @_ZNK6icu_7517GregorianCalendar14handleGetLimitE19UCalendarDateFieldsNS_8Calendar10ELimitTypeE(ptr noundef nonnull align 8 dereferenceable(654) %this, i32 noundef %field, i32 noundef %limitType)
  br label %return

return:                                           ; preds = %if.then, %if.else5
  %retval.0 = phi i32 [ %call, %if.else5 ], [ %., %if.then ]
  ret i32 %retval.0
}